target datalayout = "e-m:e-p270:32:32-p271:32:32-p272:64:64-i64:64-i128:128-f80:128-n8:16:32:64-S128"
target triple = "x86_64-pc-linux-gnu"

%"class.std::vector.135" = type { %"struct.std::_Vector_base.136" }
%"struct.std::_Vector_base.136" = type { %"struct.std::_Vector_base<pxrInternal_v0_24__pxrReserved__::SdfPath, std::allocator<pxrInternal_v0_24__pxrReserved__::SdfPath>>::_Vector_impl" }
%"struct.std::_Vector_base<pxrInternal_v0_24__pxrReserved__::SdfPath, std::allocator<pxrInternal_v0_24__pxrReserved__::SdfPath>>::_Vector_impl" = type { %"struct.std::_Vector_base<pxrInternal_v0_24__pxrReserved__::SdfPath, std::allocator<pxrInternal_v0_24__pxrReserved__::SdfPath>>::_Vector_impl_data" }
%"struct.std::_Vector_base<pxrInternal_v0_24__pxrReserved__::SdfPath, std::allocator<pxrInternal_v0_24__pxrReserved__::SdfPath>>::_Vector_impl_data" = type { ptr, ptr, ptr }
%"struct.std::__detail::_Hash_node_base" = type { ptr }
%"struct.std::__detail::_Prime_rehash_policy" = type { float, i64 }
%"class.pxrInternal_v0_24__pxrReserved__::Pcp_Dependencies" = type { %"class.std::unordered_map", i64, %"class.std::unordered_map.2", %"class.std::unordered_map.20", %"class.std::unordered_map.34", %"class.std::unordered_map.34", %"class.std::unordered_map.52", %"class.std::unordered_map.66", ptr }
%"class.std::unordered_map" = type { %"class.std::_Hashtable" }
%"class.std::_Hashtable" = type { ptr, i64, %"struct.std::__detail::_Hash_node_base", i64, %"struct.std::__detail::_Prime_rehash_policy", ptr }
%"class.std::unordered_map.2" = type { %"class.std::_Hashtable.3" }
%"class.std::_Hashtable.3" = type { ptr, i64, %"struct.std::__detail::_Hash_node_base", i64, %"struct.std::__detail::_Prime_rehash_policy", ptr }
%"class.std::unordered_map.20" = type { %"class.std::_Hashtable.21" }
%"class.std::_Hashtable.21" = type { ptr, i64, %"struct.std::__detail::_Hash_node_base", i64, %"struct.std::__detail::_Prime_rehash_policy", ptr }
%"class.std::unordered_map.34" = type { %"class.std::_Hashtable.35" }
%"class.std::_Hashtable.35" = type { ptr, i64, %"struct.std::__detail::_Hash_node_base", i64, %"struct.std::__detail::_Prime_rehash_policy", ptr }
%"class.std::unordered_map.52" = type { %"class.std::_Hashtable.53" }
%"class.std::_Hashtable.53" = type { ptr, i64, %"struct.std::__detail::_Hash_node_base", i64, %"struct.std::__detail::_Prime_rehash_policy", ptr }
%"class.std::unordered_map.66" = type { %"class.std::_Hashtable.67" }
%"class.std::_Hashtable.67" = type { ptr, i64, %"struct.std::__detail::_Hash_node_base", i64, %"struct.std::__detail::_Prime_rehash_policy", ptr }
%"class.pxrInternal_v0_24__pxrReserved__::TfWeakPtr.239" = type { ptr, %"class.pxrInternal_v0_24__pxrReserved__::TfRefPtr.97" }
%"class.pxrInternal_v0_24__pxrReserved__::TfRefPtr.97" = type { ptr }
%"struct.std::__detail::_Node_const_iterator.398" = type { %"struct.std::__detail::_Node_iterator_base.397" }
%"struct.std::__detail::_Node_iterator_base.397" = type { ptr }
%"struct.std::pair.294" = type { %"class.pxrInternal_v0_24__pxrReserved__::TfWeakPtr.239", %"class.std::vector.135" }
%"struct.std::__detail::_Hash_node_value_base" = type { %"struct.__gnu_cxx::__aligned_buffer" }
%"struct.__gnu_cxx::__aligned_buffer" = type { %"union.std::aligned_storage<40, 8>::type" }
%"union.std::aligned_storage<40, 8>::type" = type { [40 x i8] }

@__dso_handle = external hidden global i8
@_ZZNK32pxrInternal_v0_24__pxrReserved__16Pcp_Dependencies46GetPrimsUsingExpressionVariablesFromLayerStackERKNS_9TfWeakPtrINS_13PcpLayerStackEEEE5empty = internal global %"class.std::vector.135" zeroinitializer, align 8
@_ZGVZNK32pxrInternal_v0_24__pxrReserved__16Pcp_Dependencies46GetPrimsUsingExpressionVariablesFromLayerStackERKNS_9TfWeakPtrINS_13PcpLayerStackEEEE5empty = internal global i64 0, align 8

; Function Attrs: mustprogress nounwind uwtable
define linkonce_odr noundef ptr @_ZN9__gnu_cxx16__aligned_bufferISt4pairIKN32pxrInternal_v0_24__pxrReserved__9TfWeakPtrINS2_13PcpLayerStackEEESt6vectorINS2_7SdfPathESaIS8_EEEE7_M_addrEv(ptr noundef nonnull align 8 dereferenceable(40) %0) #1 comdat align 2 {
  %2 = alloca ptr, align 8
  store ptr %0, ptr %2, align 8
  %3 = load ptr, ptr %2, align 8
  %4 = getelementptr inbounds nuw %"struct.__gnu_cxx::__aligned_buffer", ptr %3, i32 0, i32 0
  ret ptr %4
}

; Function Attrs: mustprogress nounwind uwtable
define linkonce_odr void @_ZNSt8__detail19_Node_iterator_baseISt4pairIKN32pxrInternal_v0_24__pxrReserved__9TfWeakPtrINS2_13PcpLayerStackEEESt6vectorINS2_7SdfPathESaIS8_EEELb1EEC2EPNS_10_Hash_nodeISB_Lb1EEE(ptr noundef nonnull align 8 dereferenceable(8) %0, ptr noundef %1) unnamed_addr #1 comdat align 2 {
  %3 = alloca ptr, align 8
  %4 = alloca ptr, align 8
  store ptr %0, ptr %3, align 8
  store ptr %1, ptr %4, align 8
  %5 = load ptr, ptr %3, align 8
  %6 = getelementptr inbounds nuw %"struct.std::__detail::_Node_iterator_base.397", ptr %5, i32 0, i32 0
  %7 = load ptr, ptr %4, align 8
  store ptr %7, ptr %6, align 8
  ret void
}

; Function Attrs: mustprogress nounwind uwtable
define linkonce_odr void @_ZNSt15__new_allocatorIN32pxrInternal_v0_24__pxrReserved__7SdfPathEEC2Ev(ptr noundef nonnull align 1 dereferenceable(1) %0) unnamed_addr #1 comdat align 2 {
  %2 = alloca ptr, align 8
  store ptr %0, ptr %2, align 8
  ret void
}

; Function Attrs: mustprogress nounwind uwtable
define linkonce_odr noundef ptr @_ZN9__gnu_cxx16__aligned_bufferISt4pairIKN32pxrInternal_v0_24__pxrReserved__9TfWeakPtrINS2_13PcpLayerStackEEESt6vectorINS2_7SdfPathESaIS8_EEEE6_M_ptrEv(ptr noundef nonnull align 8 dereferenceable(40) %0) #1 comdat align 2 {
  %2 = alloca ptr, align 8
  store ptr %0, ptr %2, align 8
  %3 = load ptr, ptr %2, align 8
  %4 = call noundef ptr @_ZN9__gnu_cxx16__aligned_bufferISt4pairIKN32pxrInternal_v0_24__pxrReserved__9TfWeakPtrINS2_13PcpLayerStackEEESt6vectorINS2_7SdfPathESaIS8_EEEE7_M_addrEv(ptr noundef nonnull align 8 dereferenceable(40) %3) #5
  ret ptr %4
}

; Function Attrs: mustprogress nounwind uwtable
define linkonce_odr void @_ZNSt8__detail20_Node_const_iteratorISt4pairIKN32pxrInternal_v0_24__pxrReserved__9TfWeakPtrINS2_13PcpLayerStackEEESt6vectorINS2_7SdfPathESaIS8_EEELb0ELb1EEC2EPNS_10_Hash_nodeISB_Lb1EEE(ptr noundef nonnull align 8 dereferenceable(8) %0, ptr noundef %1) unnamed_addr #1 comdat align 2 {
  %3 = alloca ptr, align 8
  %4 = alloca ptr, align 8
  store ptr %0, ptr %3, align 8
  store ptr %1, ptr %4, align 8
  %5 = load ptr, ptr %3, align 8
  %6 = load ptr, ptr %4, align 8
  call void @_ZNSt8__detail19_Node_iterator_baseISt4pairIKN32pxrInternal_v0_24__pxrReserved__9TfWeakPtrINS2_13PcpLayerStackEEESt6vectorINS2_7SdfPathESaIS8_EEELb1EEC2EPNS_10_Hash_nodeISB_Lb1EEE(ptr noundef nonnull align 8 dereferenceable(8) %5, ptr noundef %6) #5
  ret void
}

; Function Attrs: mustprogress nounwind uwtable
define linkonce_odr void @_ZNSt12_Vector_baseIN32pxrInternal_v0_24__pxrReserved__7SdfPathESaIS1_EE17_Vector_impl_dataC2Ev(ptr noundef nonnull align 8 dereferenceable(24) %0) unnamed_addr #1 comdat align 2 {
  %2 = alloca ptr, align 8
  store ptr %0, ptr %2, align 8
  %3 = load ptr, ptr %2, align 8
  %4 = getelementptr inbounds nuw %"struct.std::_Vector_base<pxrInternal_v0_24__pxrReserved__::SdfPath, std::allocator<pxrInternal_v0_24__pxrReserved__::SdfPath>>::_Vector_impl_data", ptr %3, i32 0, i32 0
  store ptr null, ptr %4, align 8
  %5 = getelementptr inbounds nuw %"struct.std::_Vector_base<pxrInternal_v0_24__pxrReserved__::SdfPath, std::allocator<pxrInternal_v0_24__pxrReserved__::SdfPath>>::_Vector_impl_data", ptr %3, i32 0, i32 1
  store ptr null, ptr %5, align 8
  %6 = getelementptr inbounds nuw %"struct.std::_Vector_base<pxrInternal_v0_24__pxrReserved__::SdfPath, std::allocator<pxrInternal_v0_24__pxrReserved__::SdfPath>>::_Vector_impl_data", ptr %3, i32 0, i32 2
  store ptr null, ptr %6, align 8
  ret void
}

; Function Attrs: mustprogress nounwind uwtable
define linkonce_odr void @_ZNSaIN32pxrInternal_v0_24__pxrReserved__7SdfPathEEC2Ev(ptr noundef nonnull align 1 dereferenceable(1) %0) unnamed_addr #1 comdat align 2 {
  %2 = alloca ptr, align 8
  store ptr %0, ptr %2, align 8
  %3 = load ptr, ptr %2, align 8
  call void @_ZNSt15__new_allocatorIN32pxrInternal_v0_24__pxrReserved__7SdfPathEEC2Ev(ptr noundef nonnull align 1 dereferenceable(1) %3) #5
  ret void
}

; Function Attrs: mustprogress nounwind uwtable
define linkonce_odr noundef ptr @_ZNSt8__detail21_Hash_node_value_baseISt4pairIKN32pxrInternal_v0_24__pxrReserved__9TfWeakPtrINS2_13PcpLayerStackEEESt6vectorINS2_7SdfPathESaIS8_EEEE9_M_valptrEv(ptr noundef nonnull align 8 dereferenceable(40) %0) #1 comdat align 2 {
  %2 = alloca ptr, align 8
  store ptr %0, ptr %2, align 8
  %3 = load ptr, ptr %2, align 8
  %4 = getelementptr inbounds nuw %"struct.std::__detail::_Hash_node_value_base", ptr %3, i32 0, i32 0
  %5 = call noundef ptr @_ZN9__gnu_cxx16__aligned_bufferISt4pairIKN32pxrInternal_v0_24__pxrReserved__9TfWeakPtrINS2_13PcpLayerStackEEESt6vectorINS2_7SdfPathESaIS8_EEEE6_M_ptrEv(ptr noundef nonnull align 8 dereferenceable(40) %4) #5
  ret ptr %5
}

; Function Attrs: mustprogress nounwind uwtable
define linkonce_odr ptr @_ZNKSt10_HashtableIN32pxrInternal_v0_24__pxrReserved__9TfWeakPtrINS0_13PcpLayerStackEEESt4pairIKS3_St6vectorINS0_7SdfPathESaIS7_EEESaISA_ENSt8__detail10_Select1stESt8equal_toIS3_ENS0_6TfHashENSC_18_Mod_range_hashingENSC_20_Default_ranged_hashENSC_20_Prime_rehash_policyENSC_17_Hashtable_traitsILb1ELb0ELb1EEEE3endEv(ptr noundef nonnull align 8 dereferenceable(56) %0) #1 comdat align 2 {
  %2 = alloca %"struct.std::__detail::_Node_const_iterator.398", align 8
  %3 = alloca ptr, align 8
  store ptr %0, ptr %3, align 8
  call void @_ZNSt8__detail20_Node_const_iteratorISt4pairIKN32pxrInternal_v0_24__pxrReserved__9TfWeakPtrINS2_13PcpLayerStackEEESt6vectorINS2_7SdfPathESaIS8_EEELb0ELb1EEC2EPNS_10_Hash_nodeISB_Lb1EEE(ptr noundef nonnull align 8 dereferenceable(8) %2, ptr noundef null) #5
  %4 = getelementptr inbounds nuw %"struct.std::__detail::_Node_const_iterator.398", ptr %2, i32 0, i32 0
  %5 = getelementptr inbounds nuw %"struct.std::__detail::_Node_iterator_base.397", ptr %4, i32 0, i32 0
  %6 = load ptr, ptr %5, align 8
  ret ptr %6
}

; Function Attrs: mustprogress nounwind uwtable
define linkonce_odr void @_ZNSt12_Vector_baseIN32pxrInternal_v0_24__pxrReserved__7SdfPathESaIS1_EE12_Vector_implC2Ev(ptr noundef nonnull align 8 dereferenceable(24) %0) unnamed_addr #1 comdat align 2 {
  %2 = alloca ptr, align 8
  store ptr %0, ptr %2, align 8
  %3 = load ptr, ptr %2, align 8
  call void @_ZNSaIN32pxrInternal_v0_24__pxrReserved__7SdfPathEEC2Ev(ptr noundef nonnull align 1 dereferenceable(1) %3) #5
  call void @_ZNSt12_Vector_baseIN32pxrInternal_v0_24__pxrReserved__7SdfPathESaIS1_EE17_Vector_impl_dataC2Ev(ptr noundef nonnull align 8 dereferenceable(24) %3) #5
  ret void
}

; Function Attrs: mustprogress nounwind uwtable
define linkonce_odr noundef ptr @_ZNKSt8__detail20_Node_const_iteratorISt4pairIKN32pxrInternal_v0_24__pxrReserved__9TfWeakPtrINS2_13PcpLayerStackEEESt6vectorINS2_7SdfPathESaIS8_EEELb0ELb1EEptEv(ptr noundef nonnull align 8 dereferenceable(8) %0) #1 comdat align 2 {
  %2 = alloca ptr, align 8
  store ptr %0, ptr %2, align 8
  %3 = load ptr, ptr %2, align 8
  %4 = getelementptr inbounds nuw %"struct.std::__detail::_Node_iterator_base.397", ptr %3, i32 0, i32 0
  %5 = load ptr, ptr %4, align 8
  %6 = getelementptr inbounds i8, ptr %5, i64 8
  %7 = call noundef ptr @_ZNSt8__detail21_Hash_node_value_baseISt4pairIKN32pxrInternal_v0_24__pxrReserved__9TfWeakPtrINS2_13PcpLayerStackEEESt6vectorINS2_7SdfPathESaIS8_EEEE9_M_valptrEv(ptr noundef nonnull align 8 dereferenceable(40) %6) #5
  ret ptr %7
}

; Function Attrs: mustprogress nounwind uwtable
define linkonce_odr noundef zeroext i1 @_ZNSt8__detailneERKNS_19_Node_iterator_baseISt4pairIKN32pxrInternal_v0_24__pxrReserved__9TfWeakPtrINS2_13PcpLayerStackEEESt6vectorINS2_7SdfPathESaIS8_EEELb1EEESE_(ptr noundef nonnull align 8 dereferenceable(8) %0, ptr noundef nonnull align 8 dereferenceable(8) %1) #1 comdat {
  %3 = alloca ptr, align 8
  %4 = alloca ptr, align 8
  store ptr %0, ptr %3, align 8
  store ptr %1, ptr %4, align 8
  %5 = load ptr, ptr %3, align 8
  %6 = getelementptr inbounds nuw %"struct.std::__detail::_Node_iterator_base.397", ptr %5, i32 0, i32 0
  %7 = load ptr, ptr %6, align 8
  %8 = load ptr, ptr %4, align 8
  %9 = getelementptr inbounds nuw %"struct.std::__detail::_Node_iterator_base.397", ptr %8, i32 0, i32 0
  %10 = load ptr, ptr %9, align 8
  %11 = icmp ne ptr %7, %10
  ret i1 %11
}

; Function Attrs: mustprogress nounwind uwtable
define linkonce_odr ptr @_ZNKSt13unordered_mapIN32pxrInternal_v0_24__pxrReserved__9TfWeakPtrINS0_13PcpLayerStackEEESt6vectorINS0_7SdfPathESaIS5_EENS0_6TfHashESt8equal_toIS3_ESaISt4pairIKS3_S7_EEE3endEv(ptr noundef nonnull align 8 dereferenceable(56) %0) #1 comdat align 2 {
  %2 = alloca %"struct.std::__detail::_Node_const_iterator.398", align 8
  %3 = alloca ptr, align 8
  store ptr %0, ptr %3, align 8
  %4 = load ptr, ptr %3, align 8
  %5 = getelementptr inbounds nuw %"class.std::unordered_map.66", ptr %4, i32 0, i32 0
  %6 = call ptr @_ZNKSt10_HashtableIN32pxrInternal_v0_24__pxrReserved__9TfWeakPtrINS0_13PcpLayerStackEEESt4pairIKS3_St6vectorINS0_7SdfPathESaIS7_EEESaISA_ENSt8__detail10_Select1stESt8equal_toIS3_ENS0_6TfHashENSC_18_Mod_range_hashingENSC_20_Default_ranged_hashENSC_20_Prime_rehash_policyENSC_17_Hashtable_traitsILb1ELb0ELb1EEEE3endEv(ptr noundef nonnull align 8 dereferenceable(56) %5) #5
  %7 = getelementptr inbounds nuw %"struct.std::__detail::_Node_const_iterator.398", ptr %2, i32 0, i32 0
  %8 = getelementptr inbounds nuw %"struct.std::__detail::_Node_iterator_base.397", ptr %7, i32 0, i32 0
  store ptr %6, ptr %8, align 8
  %9 = getelementptr inbounds nuw %"struct.std::__detail::_Node_const_iterator.398", ptr %2, i32 0, i32 0
  %10 = getelementptr inbounds nuw %"struct.std::__detail::_Node_iterator_base.397", ptr %9, i32 0, i32 0
  %11 = load ptr, ptr %10, align 8
  ret ptr %11
}

; Function Attrs: mustprogress uwtable
define linkonce_odr ptr @_ZNKSt13unordered_mapIN32pxrInternal_v0_24__pxrReserved__9TfWeakPtrINS0_13PcpLayerStackEEESt6vectorINS0_7SdfPathESaIS5_EENS0_6TfHashESt8equal_toIS3_ESaISt4pairIKS3_S7_EEE4findERSC_(ptr noundef nonnull align 8 dereferenceable(56) %0, ptr noundef nonnull align 8 dereferenceable(16) %1) #0 comdat align 2 {
  %3 = alloca %"struct.std::__detail::_Node_const_iterator.398", align 8
  %4 = alloca ptr, align 8
  %5 = alloca ptr, align 8
  store ptr %0, ptr %4, align 8
  store ptr %1, ptr %5, align 8
  %6 = load ptr, ptr %4, align 8
  %7 = getelementptr inbounds nuw %"class.std::unordered_map.66", ptr %6, i32 0, i32 0
  %8 = load ptr, ptr %5, align 8
  %9 = call ptr @_ZNKSt10_HashtableIN32pxrInternal_v0_24__pxrReserved__9TfWeakPtrINS0_13PcpLayerStackEEESt4pairIKS3_St6vectorINS0_7SdfPathESaIS7_EEESaISA_ENSt8__detail10_Select1stESt8equal_toIS3_ENS0_6TfHashENSC_18_Mod_range_hashingENSC_20_Default_ranged_hashENSC_20_Prime_rehash_policyENSC_17_Hashtable_traitsILb1ELb0ELb1EEEE4findERS5_(ptr noundef nonnull align 8 dereferenceable(56) %7, ptr noundef nonnull align 8 dereferenceable(16) %8)
  %10 = getelementptr inbounds nuw %"struct.std::__detail::_Node_const_iterator.398", ptr %3, i32 0, i32 0
  %11 = getelementptr inbounds nuw %"struct.std::__detail::_Node_iterator_base.397", ptr %10, i32 0, i32 0
  store ptr %9, ptr %11, align 8
  %12 = getelementptr inbounds nuw %"struct.std::__detail::_Node_const_iterator.398", ptr %3, i32 0, i32 0
  %13 = getelementptr inbounds nuw %"struct.std::__detail::_Node_iterator_base.397", ptr %12, i32 0, i32 0
  %14 = load ptr, ptr %13, align 8
  ret ptr %14
}

; Function Attrs: mustprogress nounwind uwtable
define linkonce_odr void @_ZNSt12_Vector_baseIN32pxrInternal_v0_24__pxrReserved__7SdfPathESaIS1_EEC2Ev(ptr noundef nonnull align 8 dereferenceable(24) %0) unnamed_addr #1 comdat align 2 {
  %2 = alloca ptr, align 8
  store ptr %0, ptr %2, align 8
  %3 = load ptr, ptr %2, align 8
  %4 = getelementptr inbounds nuw %"struct.std::_Vector_base.136", ptr %3, i32 0, i32 0
  call void @_ZNSt12_Vector_baseIN32pxrInternal_v0_24__pxrReserved__7SdfPathESaIS1_EE12_Vector_implC2Ev(ptr noundef nonnull align 8 dereferenceable(24) %4) #5
  ret void
}

; Function Attrs: mustprogress uwtable
define linkonce_odr noundef ptr @_ZN32pxrInternal_v0_24__pxrReserved__14TfMapLookupPtrISt13unordered_mapINS_9TfWeakPtrINS_13PcpLayerStackEEESt6vectorINS_7SdfPathESaIS6_EENS_6TfHashESt8equal_toIS4_ESaISt4pairIKS4_S8_EEES4_EEPKNT_11mapped_typeERKSH_RKT0_(ptr noundef nonnull align 8 dereferenceable(56) %0, ptr noundef nonnull align 8 dereferenceable(16) %1) #0 comdat {
  %3 = alloca ptr, align 8
  %4 = alloca ptr, align 8
  %5 = alloca %"struct.std::__detail::_Node_const_iterator.398", align 8
  %6 = alloca %"struct.std::__detail::_Node_const_iterator.398", align 8
  store ptr %0, ptr %3, align 8
  store ptr %1, ptr %4, align 8
  %7 = load ptr, ptr %3, align 8
  %8 = load ptr, ptr %4, align 8
  %9 = call ptr @_ZNKSt13unordered_mapIN32pxrInternal_v0_24__pxrReserved__9TfWeakPtrINS0_13PcpLayerStackEEESt6vectorINS0_7SdfPathESaIS5_EENS0_6TfHashESt8equal_toIS3_ESaISt4pairIKS3_S7_EEE4findERSC_(ptr noundef nonnull align 8 dereferenceable(56) %7, ptr noundef nonnull align 8 dereferenceable(16) %8)
  %10 = getelementptr inbounds nuw %"struct.std::__detail::_Node_const_iterator.398", ptr %5, i32 0, i32 0
  %11 = getelementptr inbounds nuw %"struct.std::__detail::_Node_iterator_base.397", ptr %10, i32 0, i32 0
  store ptr %9, ptr %11, align 8
  %12 = load ptr, ptr %3, align 8
  %13 = call ptr @_ZNKSt13unordered_mapIN32pxrInternal_v0_24__pxrReserved__9TfWeakPtrINS0_13PcpLayerStackEEESt6vectorINS0_7SdfPathESaIS5_EENS0_6TfHashESt8equal_toIS3_ESaISt4pairIKS3_S7_EEE3endEv(ptr noundef nonnull align 8 dereferenceable(56) %12) #5
  %14 = getelementptr inbounds nuw %"struct.std::__detail::_Node_const_iterator.398", ptr %6, i32 0, i32 0
  %15 = getelementptr inbounds nuw %"struct.std::__detail::_Node_iterator_base.397", ptr %14, i32 0, i32 0
  store ptr %13, ptr %15, align 8
  %16 = call noundef zeroext i1 @_ZNSt8__detailneERKNS_19_Node_iterator_baseISt4pairIKN32pxrInternal_v0_24__pxrReserved__9TfWeakPtrINS2_13PcpLayerStackEEESt6vectorINS2_7SdfPathESaIS8_EEELb1EEESE_(ptr noundef nonnull align 8 dereferenceable(8) %5, ptr noundef nonnull align 8 dereferenceable(8) %6) #5
  br i1 %16, label %17, label %20

17:                                               ; preds = %2
  %18 = call noundef ptr @_ZNKSt8__detail20_Node_const_iteratorISt4pairIKN32pxrInternal_v0_24__pxrReserved__9TfWeakPtrINS2_13PcpLayerStackEEESt6vectorINS2_7SdfPathESaIS8_EEELb0ELb1EEptEv(ptr noundef nonnull align 8 dereferenceable(8) %5) #5
  %19 = getelementptr inbounds nuw %"struct.std::pair.294", ptr %18, i32 0, i32 1
  br label %21

20:                                               ; preds = %2
  br label %21

21:                                               ; preds = %20, %17
  %22 = phi ptr [ %19, %17 ], [ null, %20 ]
  ret ptr %22
}

; Function Attrs: mustprogress nounwind uwtable
define linkonce_odr void @_ZNSt6vectorIN32pxrInternal_v0_24__pxrReserved__7SdfPathESaIS1_EEC2Ev(ptr noundef nonnull align 8 dereferenceable(24) %0) unnamed_addr #1 comdat align 2 {
  %2 = alloca ptr, align 8
  store ptr %0, ptr %2, align 8
  %3 = load ptr, ptr %2, align 8
  call void @_ZNSt12_Vector_baseIN32pxrInternal_v0_24__pxrReserved__7SdfPathESaIS1_EEC2Ev(ptr noundef nonnull align 8 dereferenceable(24) %3) #5
  ret void
}

; Function Attrs: mustprogress uwtable
define noundef nonnull align 8 dereferenceable(24) ptr @_ZNK32pxrInternal_v0_24__pxrReserved__16Pcp_Dependencies46GetPrimsUsingExpressionVariablesFromLayerStackERKNS_9TfWeakPtrINS_13PcpLayerStackEEE(ptr noundef nonnull align 8 dereferenceable(408) %0, ptr noundef nonnull align 8 dereferenceable(16) %1) #0 align 2 {
  %3 = alloca ptr, align 8
  %4 = alloca ptr, align 8
  %5 = alloca ptr, align 8
  store ptr %0, ptr %3, align 8
  store ptr %1, ptr %4, align 8
  %6 = load ptr, ptr %3, align 8
  %7 = load atomic i8, ptr @_ZGVZNK32pxrInternal_v0_24__pxrReserved__16Pcp_Dependencies46GetPrimsUsingExpressionVariablesFromLayerStackERKNS_9TfWeakPtrINS_13PcpLayerStackEEEE5empty acquire, align 8
  %8 = icmp eq i8 %7, 0
  br i1 %8, label %9, label %14, !prof !10

9:                                                ; preds = %2
  %10 = call i32 @__cxa_guard_acquire(ptr @_ZGVZNK32pxrInternal_v0_24__pxrReserved__16Pcp_Dependencies46GetPrimsUsingExpressionVariablesFromLayerStackERKNS_9TfWeakPtrINS_13PcpLayerStackEEEE5empty) #5
  %11 = icmp ne i32 %10, 0
  br i1 %11, label %12, label %14

12:                                               ; preds = %9
  call void @_ZNSt6vectorIN32pxrInternal_v0_24__pxrReserved__7SdfPathESaIS1_EEC2Ev(ptr noundef nonnull align 8 dereferenceable(24) @_ZZNK32pxrInternal_v0_24__pxrReserved__16Pcp_Dependencies46GetPrimsUsingExpressionVariablesFromLayerStackERKNS_9TfWeakPtrINS_13PcpLayerStackEEEE5empty) #5
  %13 = call i32 @__cxa_atexit(ptr @_ZNSt6vectorIN32pxrInternal_v0_24__pxrReserved__7SdfPathESaIS1_EED2Ev, ptr @_ZZNK32pxrInternal_v0_24__pxrReserved__16Pcp_Dependencies46GetPrimsUsingExpressionVariablesFromLayerStackERKNS_9TfWeakPtrINS_13PcpLayerStackEEEE5empty, ptr @__dso_handle) #5
  call void @__cxa_guard_release(ptr @_ZGVZNK32pxrInternal_v0_24__pxrReserved__16Pcp_Dependencies46GetPrimsUsingExpressionVariablesFromLayerStackERKNS_9TfWeakPtrINS_13PcpLayerStackEEEE5empty) #5
  br label %14

14:                                               ; preds = %12, %9, %2
  %15 = getelementptr inbounds nuw %"class.pxrInternal_v0_24__pxrReserved__::Pcp_Dependencies", ptr %6, i32 0, i32 7
  %16 = load ptr, ptr %4, align 8
  %17 = call noundef ptr @_ZN32pxrInternal_v0_24__pxrReserved__14TfMapLookupPtrISt13unordered_mapINS_9TfWeakPtrINS_13PcpLayerStackEEESt6vectorINS_7SdfPathESaIS6_EENS_6TfHashESt8equal_toIS4_ESaISt4pairIKS4_S8_EEES4_EEPKNT_11mapped_typeERKSH_RKT0_(ptr noundef nonnull align 8 dereferenceable(56) %15, ptr noundef nonnull align 8 dereferenceable(16) %16)
  store ptr %17, ptr %5, align 8
  %18 = load ptr, ptr %5, align 8
  %19 = icmp ne ptr %18, null
  br i1 %19, label %20, label %22

20:                                               ; preds = %14
  %21 = load ptr, ptr %5, align 8
  br label %23

22:                                               ; preds = %14
  br label %23

23:                                               ; preds = %22, %20
  %24 = phi ptr [ %21, %20 ], [ @_ZZNK32pxrInternal_v0_24__pxrReserved__16Pcp_Dependencies46GetPrimsUsingExpressionVariablesFromLayerStackERKNS_9TfWeakPtrINS_13PcpLayerStackEEEE5empty, %22 ]
  ret ptr %24
}