; Function Attrs: mustprogress uwtable
define noundef nonnull align 8 dereferenceable(24) ptr @_ZNK32pxrInternal_v0_24__pxrReserved__16Pcp_Dependencies46GetPrimsUsingExpressionVariablesFromLayerStackERKNS_9TfWeakPtrINS_13PcpLayerStackEEE(ptr noundef nonnull align 8 dereferenceable(408) %0, ptr noundef nonnull align 8 dereferenceable(16) %1) local_unnamed_addr #0 align 2 {
  %3 = load atomic i8, ptr @_ZGVZNK32pxrInternal_v0_24__pxrReserved__16Pcp_Dependencies46GetPrimsUsingExpressionVariablesFromLayerStackERKNS_9TfWeakPtrINS_13PcpLayerStackEEEE5empty acquire, align 8
  %4 = icmp eq i8 %3, 0
  br i1 %4, label %5, label %9, !prof !58

5:                                                ; preds = %2
  %6 = tail call i32 @__cxa_guard_acquire(ptr nonnull @_ZGVZNK32pxrInternal_v0_24__pxrReserved__16Pcp_Dependencies46GetPrimsUsingExpressionVariablesFromLayerStackERKNS_9TfWeakPtrINS_13PcpLayerStackEEEE5empty) #18
  %.not = icmp eq i32 %6, 0
  br i1 %.not, label %9, label %7

7:                                                ; preds = %5
  tail call void @llvm.memset.p0.i64(ptr noundef nonnull align 8 dereferenceable(24) @_ZZNK32pxrInternal_v0_24__pxrReserved__16Pcp_Dependencies46GetPrimsUsingExpressionVariablesFromLayerStackERKNS_9TfWeakPtrINS_13PcpLayerStackEEEE5empty, i8 0, i64 24, i1 false)
  %8 = tail call i32 @__cxa_atexit(ptr nonnull @_ZNSt6vectorIN32pxrInternal_v0_24__pxrReserved__7SdfPathESaIS1_EED2Ev, ptr nonnull @_ZZNK32pxrInternal_v0_24__pxrReserved__16Pcp_Dependencies46GetPrimsUsingExpressionVariablesFromLayerStackERKNS_9TfWeakPtrINS_13PcpLayerStackEEEE5empty, ptr nonnull @__dso_handle) #18
  tail call void @__cxa_guard_release(ptr nonnull @_ZGVZNK32pxrInternal_v0_24__pxrReserved__16Pcp_Dependencies46GetPrimsUsingExpressionVariablesFromLayerStackERKNS_9TfWeakPtrINS_13PcpLayerStackEEEE5empty) #18
  br label %9

9:                                                ; preds = %7, %5, %2
  %10 = getelementptr inbounds nuw i8, ptr %0, i64 344
  %11 = tail call ptr @_ZNKSt10_HashtableIN32pxrInternal_v0_24__pxrReserved__9TfWeakPtrINS0_13PcpLayerStackEEESt4pairIKS3_St6vectorINS0_7SdfPathESaIS7_EEESaISA_ENSt8__detail10_Select1stESt8equal_toIS3_ENS0_6TfHashENSC_18_Mod_range_hashingENSC_20_Default_ranged_hashENSC_20_Prime_rehash_policyENSC_17_Hashtable_traitsILb1ELb0ELb1EEEE4findERS5_(ptr noundef nonnull align 8 dereferenceable(56) %10, ptr noundef nonnull align 8 dereferenceable(16) %1)
  %.not.i = icmp eq ptr %11, null
  %12 = getelementptr inbounds i8, ptr %11, i64 24
  %13 = select i1 %.not.i, ptr @_ZZNK32pxrInternal_v0_24__pxrReserved__16Pcp_Dependencies46GetPrimsUsingExpressionVariablesFromLayerStackERKNS_9TfWeakPtrINS_13PcpLayerStackEEEE5empty, ptr %12
  ret ptr %13
}